target datalayout = "e-m:e-p270:32:32-p271:32:32-p272:64:64-i64:64-i128:128-f80:128-n8:16:32:64-S128"
target triple = "x86_64-pc-linux-gnu"

%struct._zend_executor_globals = type { %struct._zval_struct, %struct._zval_struct, [32 x ptr], ptr, ptr, %struct._zend_array, %struct._zend_array, ptr, i32, i32, ptr, ptr, ptr, ptr, ptr, ptr, i64, ptr, ptr, i32, i32, i64, i32, i32, i32, i8, i8, %struct.zend_atomic_bool_s, %struct.zend_atomic_bool_s, ptr, i64, ptr, ptr, %struct._zend_array, %struct._zend_array, i32, i8, %struct._zval_struct, %struct._zval_struct, %struct._zend_stack, %struct._zend_stack, %struct._zend_stack, ptr, i32, i32, i64, ptr, ptr, ptr, %struct._zend_objects_store, ptr, ptr, ptr, [3 x %struct._zend_op], ptr, i8, i8, i64, i32, i32, ptr, [16 x %struct._HashTableIterator], ptr, %union._zend_function, %struct._zend_op, %struct._zend_array, i64, %struct.zend_get_gc_buffer, ptr, ptr, ptr, i64, i8, i32, ptr, ptr, i64, %struct._zend_call_stack, i64, i64, [6 x ptr] }
%struct.zend_atomic_bool_s = type { i8 }
%struct._zval_struct = type { %union._zend_value, %union.anon.3, %union.anon.6 }
%union._zend_value = type { i64 }
%union.anon.3 = type { i32 }
%union.anon.6 = type { i32 }
%struct._zend_stack = type { i32, i32, i32, ptr }
%struct._zend_objects_store = type { ptr, i32, i32, i32 }
%struct._HashTableIterator = type { ptr, i32, i32 }
%union._zend_function = type { %struct._zend_op_array }
%struct._zend_op_array = type { i8, [3 x i8], i32, ptr, ptr, ptr, i32, i32, ptr, ptr, ptr, ptr, i32, i32, i32, i32, ptr, ptr, ptr, ptr, ptr, i32, i32, ptr, ptr, ptr, i32, i32, i32, i32, ptr, ptr, [6 x ptr] }
%struct._zend_op = type { ptr, %union._znode_op, %union._znode_op, %union._znode_op, i32, i32, i8, i8, i8, i8 }
%union._znode_op = type { i32 }
%struct._zend_array = type { %struct._zend_refcounted_h, %union.anon.0, i32, %union.anon.1, i32, i32, i32, i32, i64, ptr }
%struct._zend_refcounted_h = type { i32, %union.anon }
%union.anon = type { i32 }
%union.anon.0 = type { i32 }
%union.anon.1 = type { ptr }
%struct.zend_get_gc_buffer = type { ptr, ptr, ptr }
%struct._zend_call_stack = type { ptr, i64 }
%struct._spl_SplObjectStorage = type { %struct._zend_array, i64, i32, i64, ptr, %struct._zend_object }
%struct._zend_object = type { %struct._zend_refcounted_h, i32, ptr, ptr, ptr, [1 x %struct._zval_struct] }
%struct._zend_execute_data = type { ptr, ptr, ptr, ptr, %struct._zval_struct, ptr, ptr, ptr, ptr }
%struct._spl_SplObjectStorageElement = type { ptr, %struct._zval_struct }

@executor_globals = external global %struct._zend_executor_globals, align 8
@spl_ce_RuntimeException = external global ptr, align 8
@.str.3 = private unnamed_addr constant [37 x i8] c"Called current() on invalid iterator\00", align 1

; Function Attrs: nounwind uwtable
define internal ptr @spl_object_storage_from_obj(ptr noundef %0) #0 {
  %2 = alloca ptr, align 8
  store ptr %0, ptr %2, align 8
  %3 = load ptr, ptr %2, align 8
  %4 = getelementptr inbounds i8, ptr %3, i64 -88
  ret ptr %4
}

; Function Attrs: nounwind uwtable
define hidden void @zim_SplObjectStorage_current(ptr noundef %0, ptr noundef %1) #0 {
  %3 = alloca ptr, align 8
  %4 = alloca ptr, align 8
  %5 = alloca ptr, align 8
  %6 = alloca ptr, align 8
  %7 = alloca ptr, align 8
  %8 = alloca ptr, align 8
  %9 = alloca ptr, align 8
  %10 = alloca ptr, align 8
  %11 = alloca ptr, align 8
  %12 = alloca ptr, align 8
  %13 = alloca ptr, align 8
  store ptr %0, ptr %8, align 8
  store ptr %1, ptr %9, align 8
  %14 = load ptr, ptr %8, align 8
  %15 = getelementptr inbounds %struct._zend_execute_data, ptr %14, i32 0, i32 4
  %16 = getelementptr inbounds %struct._zval_struct, ptr %15, i32 0, i32 0
  %17 = load ptr, ptr %16, align 8
  %18 = call ptr @spl_object_storage_from_obj(ptr noundef %17)
  store ptr %18, ptr %11, align 8
  %19 = load ptr, ptr %8, align 8
  %20 = getelementptr inbounds %struct._zend_execute_data, ptr %19, i32 0, i32 4
  %21 = getelementptr inbounds %struct._zval_struct, ptr %20, i32 0, i32 2
  %22 = load i32, ptr %21, align 4
  %23 = icmp eq i32 %22, 0
  %24 = xor i1 %23, true
  %25 = xor i1 %24, true
  %26 = zext i1 %25 to i32
  %27 = sext i32 %26 to i64
  %28 = icmp ne i64 %27, 0
  br i1 %28, label %29, label %30

29:                                               ; preds = %2
  br label %31

30:                                               ; preds = %2
  call void @zend_wrong_parameters_none_error()
  br label %31

31:                                               ; preds = %30, %29
  %32 = phi i32 [ 0, %29 ], [ -1, %30 ]
  %33 = icmp eq i32 %32, -1
  br i1 %33, label %34, label %39

34:                                               ; preds = %31
  br label %35

35:                                               ; preds = %34
  %36 = load ptr, ptr getelementptr inbounds (%struct._zend_executor_globals, ptr @executor_globals, i32 0, i32 50), align 8
  %37 = icmp ne ptr %36, null
  call void @llvm.assume(i1 %37)
  br label %82

38:                                               ; No predecessors!
  br label %39

39:                                               ; preds = %38, %31
  %40 = load ptr, ptr %11, align 8
  %41 = getelementptr inbounds %struct._spl_SplObjectStorage, ptr %40, i32 0, i32 0
  %42 = load ptr, ptr %11, align 8
  %43 = getelementptr inbounds %struct._spl_SplObjectStorage, ptr %42, i32 0, i32 2
  store ptr %41, ptr %5, align 8
  store ptr %43, ptr %6, align 8
  %44 = load ptr, ptr %5, align 8
  %45 = load ptr, ptr %6, align 8
  %46 = call ptr @zend_hash_get_current_data_ex(ptr noundef %44, ptr noundef %45) #10
  store ptr %46, ptr %7, align 8
  %47 = load ptr, ptr %7, align 8
  %48 = icmp ne ptr %47, null
  br i1 %48, label %49, label %55

49:                                               ; preds = %39
  %50 = load ptr, ptr %7, align 8
  %51 = load ptr, ptr %50, align 8
  %52 = icmp ne ptr %51, null
  call void @llvm.assume(i1 %52)
  %53 = load ptr, ptr %7, align 8
  %54 = load ptr, ptr %53, align 8
  store ptr %54, ptr %4, align 8
  br label %56

55:                                               ; preds = %39
  store ptr null, ptr %4, align 8
  br label %56

56:                                               ; preds = %55, %49
  %57 = load ptr, ptr %4, align 8
  store ptr %57, ptr %10, align 8
  %58 = icmp eq ptr %57, null
  br i1 %58, label %59, label %66

59:                                               ; preds = %56
  %60 = load ptr, ptr @spl_ce_RuntimeException, align 8
  %61 = call ptr @zend_throw_exception(ptr noundef %60, ptr noundef @.str.3, i64 noundef 0)
  br label %62

62:                                               ; preds = %59
  %63 = load ptr, ptr getelementptr inbounds (%struct._zend_executor_globals, ptr @executor_globals, i32 0, i32 50), align 8
  %64 = icmp ne ptr %63, null
  call void @llvm.assume(i1 %64)
  br label %82

65:                                               ; No predecessors!
  br label %66

66:                                               ; preds = %65, %56
  br label %67

67:                                               ; preds = %66
  %68 = load ptr, ptr %9, align 8
  store ptr %68, ptr %12, align 8
  %69 = load ptr, ptr %10, align 8
  %70 = getelementptr inbounds %struct._spl_SplObjectStorageElement, ptr %69, i32 0, i32 0
  %71 = load ptr, ptr %70, align 8
  store ptr %71, ptr %13, align 8
  %72 = load ptr, ptr %13, align 8
  %73 = getelementptr inbounds %struct._zend_object, ptr %72, i32 0, i32 0
  store ptr %73, ptr %3, align 8
  %74 = load ptr, ptr %3, align 8
  %75 = load i32, ptr %74, align 4
  %76 = add i32 %75, 1
  store i32 %76, ptr %74, align 4
  %77 = load ptr, ptr %13, align 8
  %78 = load ptr, ptr %12, align 8
  %79 = getelementptr inbounds %struct._zval_struct, ptr %78, i32 0, i32 0
  store ptr %77, ptr %79, align 8
  %80 = load ptr, ptr %12, align 8
  %81 = getelementptr inbounds %struct._zval_struct, ptr %80, i32 0, i32 1
  store i32 776, ptr %81, align 8
  br label %82

82:                                               ; preds = %67, %62, %35
  ret void
}