; Function Attrs: nounwind uwtable
define hidden void @zim_SplObjectStorage_current(ptr nocapture noundef readonly %0, ptr nocapture noundef writeonly %1) #0 {
  %3 = getelementptr inbounds i8, ptr %0, i64 44
  %4 = load i32, ptr %3, align 4
  %.not = icmp eq i32 %4, 0
  br i1 %.not, label %.critedge, label %5

5:                                                ; preds = %2
  tail call void @zend_wrong_parameters_none_error() #10
  %6 = load ptr, ptr getelementptr inbounds (%struct._zend_executor_globals, ptr @executor_globals, i64 0, i32 50), align 8
  %7 = icmp ne ptr %6, null
  tail call void @llvm.assume(i1 %7)
  br label %24

.critedge:                                        ; preds = %2
  %8 = getelementptr inbounds i8, ptr %0, i64 32
  %9 = load ptr, ptr %8, align 8
  %10 = getelementptr inbounds i8, ptr %9, i64 -88
  %11 = getelementptr inbounds i8, ptr %9, i64 -24
  %12 = tail call ptr @zend_hash_get_current_data_ex(ptr noundef nonnull %10, ptr noundef nonnull %11) #10
  %.not18 = icmp eq ptr %12, null
  br i1 %.not18, label %13, label %18

13:                                               ; preds = %.critedge
  %14 = load ptr, ptr @spl_ce_RuntimeException, align 8
  %15 = tail call ptr @zend_throw_exception(ptr noundef %14, ptr noundef nonnull @.str.3, i64 noundef 0) #10
  %16 = load ptr, ptr getelementptr inbounds (%struct._zend_executor_globals, ptr @executor_globals, i64 0, i32 50), align 8
  %17 = icmp ne ptr %16, null
  tail call void @llvm.assume(i1 %17)
  br label %24

18:                                               ; preds = %.critedge
  %19 = load ptr, ptr %12, align 8, !nonnull !4, !noundef !4
  %20 = load ptr, ptr %19, align 8
  %21 = load i32, ptr %20, align 4
  %22 = add i32 %21, 1
  store i32 %22, ptr %20, align 4
  store ptr %20, ptr %1, align 8
  %23 = getelementptr inbounds i8, ptr %1, i64 8
  store i32 776, ptr %23, align 8
  br label %24

24:                                               ; preds = %18, %13, %5
  ret void
}